; Listing generated by Microsoft (R) Optimizing Compiler Version 19.23.28106.4 

include listing.inc

INCLUDELIB MSVCRTD
INCLUDELIB OLDNAMES

CONST	SEGMENT
$SG124093 DB	'containers incompatible for swap', 00H
	ORG $+3
$SG124094 DB	'%s', 00H
	ORG $+1
$SG124097 DB	's', 00H, 't', 00H, 'd', 00H, ':', 00H, ':', 00H, '_', 00H
	DB	'P', 00H, 'o', 00H, 'c', 00H, 's', 00H, 00H, 00H
	ORG $+2
$SG124095 DB	'D:\Program Files (x86)\Microsoft Visual Studio\2019\Comm'
	DB	'unity\VC\Tools\MSVC\14.23.28105\include\xmemory', 00H
?qt_meta_stringdata_EEGDataParser@@3Uqt_meta_stringdata_EEGDataParser_t@@B DD 0ffffffffH ; qt_meta_stringdata_EEGDataParser
	DD	0dH
	DD	00H
	ORG $+4
	DQ	0000000000000018H
	DB	045H
	DB	045H
	DB	047H
	DB	044H
	DB	061H
	DB	074H
	DB	061H
	DB	050H
	DB	061H
	DB	072H
	DB	073H
	DB	065H
	DB	072H
	DB	00H
	ORG $+2
$SG124096 DB	'D', 00H, ':', 00H, '\', 00H, 'P', 00H, 'r', 00H, 'o', 00H
	DB	'g', 00H, 'r', 00H, 'a', 00H, 'm', 00H, ' ', 00H, 'F', 00H, 'i'
	DB	00H, 'l', 00H, 'e', 00H, 's', 00H, ' ', 00H, '(', 00H, 'x', 00H
	DB	'8', 00H, '6', 00H, ')', 00H, '\', 00H, 'M', 00H, 'i', 00H, 'c'
	DB	00H, 'r', 00H, 'o', 00H, 's', 00H, 'o', 00H, 'f', 00H, 't', 00H
	DB	' ', 00H, 'V', 00H, 'i', 00H, 's', 00H, 'u', 00H, 'a', 00H, 'l'
	DB	00H, ' ', 00H, 'S', 00H, 't', 00H, 'u', 00H, 'd', 00H, 'i', 00H
	DB	'o', 00H, '\', 00H, '2', 00H, '0', 00H, '1', 00H, '9', 00H, '\'
	DB	00H, 'C', 00H, 'o', 00H, 'm', 00H, 'm', 00H, 'u', 00H, 'n', 00H
	DB	'i', 00H, 't', 00H, 'y', 00H, '\', 00H, 'V', 00H, 'C', 00H, '\'
	DB	00H, 'T', 00H, 'o', 00H, 'o', 00H, 'l', 00H, 's', 00H, '\', 00H
	DB	'M', 00H, 'S', 00H, 'V', 00H, 'C', 00H, '\', 00H, '1', 00H, '4'
	DB	00H, '.', 00H, '2', 00H, '3', 00H, '.', 00H, '2', 00H, '8', 00H
	DB	'1', 00H, '0', 00H, '5', 00H, '\', 00H, 'i', 00H, 'n', 00H, 'c'
	DB	00H, 'l', 00H, 'u', 00H, 'd', 00H, 'e', 00H, '\', 00H, 'x', 00H
	DB	'm', 00H, 'e', 00H, 'm', 00H, 'o', 00H, 'r', 00H, 'y', 00H, 00H
	DB	00H
$SG124098 DB	'"', 00H, 'c', 00H, 'o', 00H, 'n', 00H, 't', 00H, 'a', 00H
	DB	'i', 00H, 'n', 00H, 'e', 00H, 'r', 00H, 's', 00H, ' ', 00H, 'i'
	DB	00H, 'n', 00H, 'c', 00H, 'o', 00H, 'm', 00H, 'p', 00H, 'a', 00H
	DB	't', 00H, 'i', 00H, 'b', 00H, 'l', 00H, 'e', 00H, ' ', 00H, 'f'
	DB	00H, 'o', 00H, 'r', 00H, ' ', 00H, 's', 00H, 'w', 00H, 'a', 00H
	DB	'p', 00H, '"', 00H, 00H, 00H
	ORG $+2
$SG126679 DB	'D:\Qt\Qt5.13.0\5.13.0\msvc2017_64\include\QtCore\qmetaty'
	DB	'pe.h', 00H
	ORG $+3
$SG129076 DB	'invalid argument', 00H
	ORG $+7
$SG126680 DB	'qRegisterNormalizedMetaType was called with a not normal'
	DB	'ized type name, please call qRegisterMetaType instead.', 00H
	ORG $+1
$SG126681 DB	'qRegisterNormalizedMetaType', 00H
$SG129077 DB	'%s', 00H
	ORG $+1
$SG127018 DB	'D:\Qt\Qt5.13.0\5.13.0\msvc2017_64\include\QtCore\qmetaty'
	DB	'pe.h', 00H
	ORG $+3
$SG127019 DB	'qRegisterNormalizedMetaType was called with a not normal'
	DB	'ized type name, please call qRegisterMetaType instead.', 00H
	ORG $+1
$SG127020 DB	'qRegisterNormalizedMetaType', 00H
	ORG $+4
?qt_meta_data_EEGDataParser@@3QBIB DD 08H		; qt_meta_data_EEGDataParser
	DD	00H
	DD	00H
	DD	00H
	DD	00H
	DD	00H
	DD	00H
	DD	00H
	DD	00H
	DD	00H
	DD	00H
	DD	00H
	DD	00H
	DD	00H
	DD	00H
	ORG $+4
$SG127357 DB	'D:\Qt\Qt5.13.0\5.13.0\msvc2017_64\include\QtCore\qmetaty'
	DB	'pe.h', 00H
	ORG $+3
$SG127358 DB	'qRegisterNormalizedMetaType was called with a not normal'
	DB	'ized type name, please call qRegisterMetaType instead.', 00H
	ORG $+1
$SG127359 DB	'qRegisterNormalizedMetaType', 00H
	ORG $+4
$SG129078 DB	'D:\Program Files (x86)\Microsoft Visual Studio\2019\Comm'
	DB	'unity\VC\Tools\MSVC\14.23.28105\include\xmemory', 00H
	ORG $+8
$SG129079 DB	'D', 00H, ':', 00H, '\', 00H, 'P', 00H, 'r', 00H, 'o', 00H
	DB	'g', 00H, 'r', 00H, 'a', 00H, 'm', 00H, ' ', 00H, 'F', 00H, 'i'
	DB	00H, 'l', 00H, 'e', 00H, 's', 00H, ' ', 00H, '(', 00H, 'x', 00H
	DB	'8', 00H, '6', 00H, ')', 00H, '\', 00H, 'M', 00H, 'i', 00H, 'c'
	DB	00H, 'r', 00H, 'o', 00H, 's', 00H, 'o', 00H, 'f', 00H, 't', 00H
	DB	' ', 00H, 'V', 00H, 'i', 00H, 's', 00H, 'u', 00H, 'a', 00H, 'l'
	DB	00H, ' ', 00H, 'S', 00H, 't', 00H, 'u', 00H, 'd', 00H, 'i', 00H
	DB	'o', 00H, '\', 00H, '2', 00H, '0', 00H, '1', 00H, '9', 00H, '\'
	DB	00H, 'C', 00H, 'o', 00H, 'm', 00H, 'm', 00H, 'u', 00H, 'n', 00H
	DB	'i', 00H, 't', 00H, 'y', 00H, '\', 00H, 'V', 00H, 'C', 00H, '\'
	DB	00H, 'T', 00H, 'o', 00H, 'o', 00H, 'l', 00H, 's', 00H, '\', 00H
	DB	'M', 00H, 'S', 00H, 'V', 00H, 'C', 00H, '\', 00H, '1', 00H, '4'
	DB	00H, '.', 00H, '2', 00H, '3', 00H, '.', 00H, '2', 00H, '8', 00H
	DB	'1', 00H, '0', 00H, '5', 00H, '\', 00H, 'i', 00H, 'n', 00H, 'c'
	DB	00H, 'l', 00H, 'u', 00H, 'd', 00H, 'e', 00H, '\', 00H, 'x', 00H
	DB	'm', 00H, 'e', 00H, 'm', 00H, 'o', 00H, 'r', 00H, 'y', 00H, 00H
	DB	00H
$SG129080 DB	's', 00H, 't', 00H, 'd', 00H, ':', 00H, ':', 00H, '_', 00H
	DB	'A', 00H, 'l', 00H, 'l', 00H, 'o', 00H, 'c', 00H, 'a', 00H, 't'
	DB	00H, 'e', 00H, '_', 00H, 'm', 00H, 'a', 00H, 'n', 00H, 'u', 00H
	DB	'a', 00H, 'l', 00H, 'l', 00H, 'y', 00H, '_', 00H, 'v', 00H, 'e'
	DB	00H, 'c', 00H, 't', 00H, 'o', 00H, 'r', 00H, '_', 00H, 'a', 00H
	DB	'l', 00H, 'i', 00H, 'g', 00H, 'n', 00H, 'e', 00H, 'd', 00H, 00H
	DB	00H
	ORG $+2
$SG129081 DB	'"', 00H, 'i', 00H, 'n', 00H, 'v', 00H, 'a', 00H, 'l', 00H
	DB	'i', 00H, 'd', 00H, ' ', 00H, 'a', 00H, 'r', 00H, 'g', 00H, 'u'
	DB	00H, 'm', 00H, 'e', 00H, 'n', 00H, 't', 00H, '"', 00H, 00H, 00H
	ORG $+10
$SG129794 DB	'D:\Program Files (x86)\Microsoft Visual Studio\2019\Comm'
	DB	'unity\VC\Tools\MSVC\14.23.28105\include\xlocale', 00H
CONST	ENDS
PUBLIC	?__empty_global_delete@@YAXPEAX@Z		; __empty_global_delete
PUBLIC	?__empty_global_delete@@YAXPEAX_K@Z		; __empty_global_delete
PUBLIC	??C?$QScopedPointer@VQObjectData@@U?$QScopedPointerDeleter@VQObjectData@@@@@@QEBAPEAVQObjectData@@XZ ; QScopedPointer<QObjectData,QScopedPointerDeleter<QObjectData> >::operator->
PUBLIC	?metaObject@EEGDataParser@@UEBAPEBUQMetaObject@@XZ ; EEGDataParser::metaObject
PUBLIC	?qt_metacast@EEGDataParser@@UEAAPEAXPEBD@Z	; EEGDataParser::qt_metacast
PUBLIC	?qt_metacall@EEGDataParser@@UEAAHW4Call@QMetaObject@@HPEAPEAX@Z ; EEGDataParser::qt_metacall
PUBLIC	?qt_static_metacall@EEGDataParser@@CAXPEAVQObject@@W4Call@QMetaObject@@HPEAPEAX@Z ; EEGDataParser::qt_static_metacall
PUBLIC	?staticMetaObject@EEGDataParser@@2UQMetaObject@@B ; EEGDataParser::staticMetaObject
EXTRN	strcmp:PROC
EXTRN	__imp_?dynamicMetaObject@QObjectData@@QEBAPEAUQMetaObject@@XZ:PROC
EXTRN	__imp_?qt_metacast@QThread@@UEAAPEAXPEBD@Z:PROC
EXTRN	__imp_?qt_metacall@QThread@@UEAAHW4Call@QMetaObject@@HPEAPEAX@Z:PROC
EXTRN	__imp_?staticMetaObject@QThread@@2UQMetaObject@@B:BYTE
_BSS	SEGMENT
?staticMetaObject@EEGDataParser@@2UQMetaObject@@B DB 030H DUP (?) ; EEGDataParser::staticMetaObject
_BSS	ENDS
pdata	SEGMENT
$pdata$?metaObject@EEGDataParser@@UEBAPEBUQMetaObject@@XZ DD imagerel $LN5
	DD	imagerel $LN5+88
	DD	imagerel $unwind$?metaObject@EEGDataParser@@UEBAPEBUQMetaObject@@XZ
$pdata$?qt_metacast@EEGDataParser@@UEAAPEAXPEBD@Z DD imagerel $LN5
	DD	imagerel $LN5+75
	DD	imagerel $unwind$?qt_metacast@EEGDataParser@@UEAAPEAXPEBD@Z
$pdata$?qt_metacall@EEGDataParser@@UEAAHW4Call@QMetaObject@@HPEAPEAX@Z DD imagerel $LN3
	DD	imagerel $LN3+61
	DD	imagerel $unwind$?qt_metacall@EEGDataParser@@UEAAHW4Call@QMetaObject@@HPEAPEAX@Z
pdata	ENDS
CRT$XCU	SEGMENT
??staticMetaObject$initializer$@EEGDataParser@@2P6AXXZEA@@3P6AXXZEA DQ FLAT:??__E?staticMetaObject@EEGDataParser@@2UQMetaObject@@B@@YAXXZ ; ??staticMetaObject$initializer$@EEGDataParser@@2P6AXXZEA@@3P6AXXZEA
CRT$XCU	ENDS
xdata	SEGMENT
$unwind$?metaObject@EEGDataParser@@UEBAPEBUQMetaObject@@XZ DD 010901H
	DD	06209H
$unwind$?qt_metacast@EEGDataParser@@UEAAPEAXPEBD@Z DD 010e01H
	DD	0420eH
$unwind$?qt_metacall@EEGDataParser@@UEAAHW4Call@QMetaObject@@HPEAPEAX@Z DD 011701H
	DD	04217H
xdata	ENDS
; Function compile flags: /Odtp
;	COMDAT ??__E?staticMetaObject@EEGDataParser@@2UQMetaObject@@B@@YAXXZ
text$di	SEGMENT
??__E?staticMetaObject@EEGDataParser@@2UQMetaObject@@B@@YAXXZ PROC ; `dynamic initializer for 'EEGDataParser::staticMetaObject'', COMDAT
; File E:\MyProgram\EEG\MyEEGReader\EEGDataChart\EEGDataChart\x64\Debug\moc\moc_eegdataparser.cpp
; Line 67
	mov	rax, QWORD PTR __imp_?staticMetaObject@QThread@@2UQMetaObject@@B
	mov	QWORD PTR ?staticMetaObject@EEGDataParser@@2UQMetaObject@@B, rax
; Line 68
	lea	rax, OFFSET FLAT:?qt_meta_stringdata_EEGDataParser@@3Uqt_meta_stringdata_EEGDataParser_t@@B
	mov	QWORD PTR ?staticMetaObject@EEGDataParser@@2UQMetaObject@@B+8, rax
; Line 69
	lea	rax, OFFSET FLAT:?qt_meta_data_EEGDataParser@@3QBIB
	mov	QWORD PTR ?staticMetaObject@EEGDataParser@@2UQMetaObject@@B+16, rax
; Line 70
	lea	rax, OFFSET FLAT:?qt_static_metacall@EEGDataParser@@CAXPEAVQObject@@W4Call@QMetaObject@@HPEAPEAX@Z ; EEGDataParser::qt_static_metacall
	mov	QWORD PTR ?staticMetaObject@EEGDataParser@@2UQMetaObject@@B+24, rax
; Line 71
	mov	QWORD PTR ?staticMetaObject@EEGDataParser@@2UQMetaObject@@B+32, 0
; Line 72
	mov	QWORD PTR ?staticMetaObject@EEGDataParser@@2UQMetaObject@@B+40, 0
	ret	0
??__E?staticMetaObject@EEGDataParser@@2UQMetaObject@@B@@YAXXZ ENDP ; `dynamic initializer for 'EEGDataParser::staticMetaObject''
text$di	ENDS
; Function compile flags: /Odtp
_TEXT	SEGMENT
_o$ = 8
_c$ = 16
_id$ = 24
_a$ = 32
?qt_static_metacall@EEGDataParser@@CAXPEAVQObject@@W4Call@QMetaObject@@HPEAPEAX@Z PROC ; EEGDataParser::qt_static_metacall
; File E:\MyProgram\EEG\MyEEGReader\EEGDataChart\EEGDataChart\x64\Debug\moc\moc_eegdataparser.cpp
; Line 59
	mov	QWORD PTR [rsp+32], r9
	mov	DWORD PTR [rsp+24], r8d
	mov	DWORD PTR [rsp+16], edx
	mov	QWORD PTR [rsp+8], rcx
; Line 64
	ret	0
?qt_static_metacall@EEGDataParser@@CAXPEAVQObject@@W4Call@QMetaObject@@HPEAPEAX@Z ENDP ; EEGDataParser::qt_static_metacall
_TEXT	ENDS
; Function compile flags: /Odtp
_TEXT	SEGMENT
this$ = 48
_c$ = 56
_id$ = 64
_a$ = 72
?qt_metacall@EEGDataParser@@UEAAHW4Call@QMetaObject@@HPEAPEAX@Z PROC ; EEGDataParser::qt_metacall
; File E:\MyProgram\EEG\MyEEGReader\EEGDataChart\EEGDataChart\x64\Debug\moc\moc_eegdataparser.cpp
; Line 90
$LN3:
	mov	QWORD PTR [rsp+32], r9
	mov	DWORD PTR [rsp+24], r8d
	mov	DWORD PTR [rsp+16], edx
	mov	QWORD PTR [rsp+8], rcx
	sub	rsp, 40					; 00000028H
; Line 91
	mov	r9, QWORD PTR _a$[rsp]
	mov	r8d, DWORD PTR _id$[rsp]
	mov	edx, DWORD PTR _c$[rsp]
	mov	rcx, QWORD PTR this$[rsp]
	call	QWORD PTR __imp_?qt_metacall@QThread@@UEAAHW4Call@QMetaObject@@HPEAPEAX@Z
	mov	DWORD PTR _id$[rsp], eax
; Line 92
	mov	eax, DWORD PTR _id$[rsp]
; Line 93
	add	rsp, 40					; 00000028H
	ret	0
?qt_metacall@EEGDataParser@@UEAAHW4Call@QMetaObject@@HPEAPEAX@Z ENDP ; EEGDataParser::qt_metacall
_TEXT	ENDS
; Function compile flags: /Odtp
_TEXT	SEGMENT
this$ = 48
_clname$ = 56
?qt_metacast@EEGDataParser@@UEAAPEAXPEBD@Z PROC		; EEGDataParser::qt_metacast
; File E:\MyProgram\EEG\MyEEGReader\EEGDataChart\EEGDataChart\x64\Debug\moc\moc_eegdataparser.cpp
; Line 82
$LN5:
	mov	QWORD PTR [rsp+16], rdx
	mov	QWORD PTR [rsp+8], rcx
	sub	rsp, 40					; 00000028H
; Line 83
	cmp	QWORD PTR _clname$[rsp], 0
	jne	SHORT $LN2@qt_metacas
	xor	eax, eax
	jmp	SHORT $LN1@qt_metacas
$LN2@qt_metacas:
; Line 84
	lea	rdx, OFFSET FLAT:?qt_meta_stringdata_EEGDataParser@@3Uqt_meta_stringdata_EEGDataParser_t@@B+24
	mov	rcx, QWORD PTR _clname$[rsp]
	call	strcmp
	test	eax, eax
	jne	SHORT $LN3@qt_metacas
; Line 85
	mov	rax, QWORD PTR this$[rsp]
	jmp	SHORT $LN1@qt_metacas
$LN3@qt_metacas:
; Line 86
	mov	rdx, QWORD PTR _clname$[rsp]
	mov	rcx, QWORD PTR this$[rsp]
	call	QWORD PTR __imp_?qt_metacast@QThread@@UEAAPEAXPEBD@Z
$LN1@qt_metacas:
; Line 87
	add	rsp, 40					; 00000028H
	ret	0
?qt_metacast@EEGDataParser@@UEAAPEAXPEBD@Z ENDP		; EEGDataParser::qt_metacast
_TEXT	ENDS
; Function compile flags: /Odtp
_TEXT	SEGMENT
tv82 = 32
this$ = 64
?metaObject@EEGDataParser@@UEBAPEBUQMetaObject@@XZ PROC	; EEGDataParser::metaObject
; File E:\MyProgram\EEG\MyEEGReader\EEGDataChart\EEGDataChart\x64\Debug\moc\moc_eegdataparser.cpp
; Line 77
$LN5:
	mov	QWORD PTR [rsp+8], rcx
	sub	rsp, 56					; 00000038H
; Line 78
	mov	rax, QWORD PTR this$[rsp]
	add	rax, 8
	mov	rcx, rax
	call	??C?$QScopedPointer@VQObjectData@@U?$QScopedPointerDeleter@VQObjectData@@@@@@QEBAPEAVQObjectData@@XZ ; QScopedPointer<QObjectData,QScopedPointerDeleter<QObjectData> >::operator->
	cmp	QWORD PTR [rax+40], 0
	je	SHORT $LN3@metaObject
	mov	rax, QWORD PTR this$[rsp]
	add	rax, 8
	mov	rcx, rax
	call	??C?$QScopedPointer@VQObjectData@@U?$QScopedPointerDeleter@VQObjectData@@@@@@QEBAPEAVQObjectData@@XZ ; QScopedPointer<QObjectData,QScopedPointerDeleter<QObjectData> >::operator->
	mov	rcx, rax
	call	QWORD PTR __imp_?dynamicMetaObject@QObjectData@@QEBAPEAUQMetaObject@@XZ
	mov	QWORD PTR tv82[rsp], rax
	jmp	SHORT $LN4@metaObject
$LN3@metaObject:
	lea	rax, OFFSET FLAT:?staticMetaObject@EEGDataParser@@2UQMetaObject@@B ; EEGDataParser::staticMetaObject
	mov	QWORD PTR tv82[rsp], rax
$LN4@metaObject:
	mov	rax, QWORD PTR tv82[rsp]
; Line 79
	add	rsp, 56					; 00000038H
	ret	0
?metaObject@EEGDataParser@@UEBAPEBUQMetaObject@@XZ ENDP	; EEGDataParser::metaObject
_TEXT	ENDS
; Function compile flags: /Odtp
;	COMDAT ??C?$QScopedPointer@VQObjectData@@U?$QScopedPointerDeleter@VQObjectData@@@@@@QEBAPEAVQObjectData@@XZ
_TEXT	SEGMENT
this$ = 8
??C?$QScopedPointer@VQObjectData@@U?$QScopedPointerDeleter@VQObjectData@@@@@@QEBAPEAVQObjectData@@XZ PROC ; QScopedPointer<QObjectData,QScopedPointerDeleter<QObjectData> >::operator->, COMDAT
; File D:\Qt\Qt5.13.0\5.13.0\msvc2017_64\include\QtCore\qscopedpointer.h
; Line 117
	mov	QWORD PTR [rsp+8], rcx
; Line 118
	mov	rax, QWORD PTR this$[rsp]
	mov	rax, QWORD PTR [rax]
; Line 119
	ret	0
??C?$QScopedPointer@VQObjectData@@U?$QScopedPointerDeleter@VQObjectData@@@@@@QEBAPEAVQObjectData@@XZ ENDP ; QScopedPointer<QObjectData,QScopedPointerDeleter<QObjectData> >::operator->
_TEXT	ENDS
; Function compile flags: /Odtp
;	COMDAT ?__empty_global_delete@@YAXPEAX_K@Z
_TEXT	SEGMENT
__formal$ = 8
__formal$ = 16
?__empty_global_delete@@YAXPEAX_K@Z PROC		; __empty_global_delete, COMDAT
; File E:\MyProgram\EEG\MyEEGReader\EEGDataChart\EEGDataChart\x64\Debug\moc\moc_eegdataparser.cpp
; Line 96
	mov	QWORD PTR [rsp+16], rdx
	mov	QWORD PTR [rsp+8], rcx
	ret	0
?__empty_global_delete@@YAXPEAX_K@Z ENDP		; __empty_global_delete
_TEXT	ENDS
; Function compile flags: /Odtp
;	COMDAT ?__empty_global_delete@@YAXPEAX@Z
_TEXT	SEGMENT
__formal$ = 8
?__empty_global_delete@@YAXPEAX@Z PROC			; __empty_global_delete, COMDAT
; File E:\MyProgram\EEG\MyEEGReader\EEGDataChart\EEGDataChart\x64\Debug\moc\moc_eegdataparser.cpp
; Line 96
	mov	QWORD PTR [rsp+8], rcx
	ret	0
?__empty_global_delete@@YAXPEAX@Z ENDP			; __empty_global_delete
_TEXT	ENDS
END
